target datalayout = "e-m:e-p270:32:32-p271:32:32-p272:64:64-i64:64-i128:128-f80:128-n8:16:32:64-S128"
target triple = "x86_64-pc-linux-gnu"

%struct.ImVec2 = type { float, float }
%struct.ExampleTreeNode = type { [28 x i8], i32, ptr, %struct.ImVector.13, i16, i8, i8, i32, %struct.ImVec2 }
%struct.ImVector.13 = type { i32, i32, ptr }

@.str.493 = private unnamed_addr constant [9 x i8] c"Child %d\00", align 1
@_ZZL26ExampleTree_CreateDemoTreevE10root_names = internal global [10 x ptr] [ptr @.str.452, ptr @.str.453, ptr @.str.454, ptr @.str.455, ptr @.str.456, ptr @.str.457, ptr @.str.1159, ptr @.str.458, ptr @.str.459, ptr @.str.460], align 16
@.str.1160 = private unnamed_addr constant [7 x i8] c"<ROOT>\00", align 1
@.str.1161 = private unnamed_addr constant [6 x i8] c"%s %d\00", align 1
@.str.1162 = private unnamed_addr constant [13 x i8] c"Sub-child %d\00", align 1

; Function Attrs: mustprogress uwtable
define internal noundef ptr @_ZL26ExampleTree_CreateDemoTreev() #0 {
  %1 = alloca i64, align 8
  %2 = alloca [28 x i8], align 16
  %3 = alloca i32, align 4
  %4 = alloca ptr, align 8
  %5 = alloca i32, align 4
  %6 = alloca i32, align 4
  %7 = alloca i32, align 4
  %8 = alloca ptr, align 8
  %9 = alloca i32, align 4
  %10 = alloca i32, align 4
  %11 = alloca ptr, align 8
  %12 = alloca ptr, align 8
  call void @llvm.lifetime.start.p0(i64 8, ptr %1) #2
  store i64 28, ptr %1, align 8, !tbaa !464
  call void @llvm.lifetime.start.p0(i64 28, ptr %2) #2
  call void @llvm.lifetime.start.p0(i64 4, ptr %3) #2
  store i32 0, ptr %3, align 4, !tbaa !33
  call void @llvm.lifetime.start.p0(i64 8, ptr %4) #2
  %13 = load i32, ptr %3, align 4, !tbaa !33
  %14 = add nsw i32 %13, 1
  store i32 %14, ptr %3, align 4, !tbaa !33
  %15 = call noundef ptr @_ZL22ExampleTree_CreateNodePKciP15ExampleTreeNode(ptr noundef @.str.1160, i32 noundef %14, ptr noundef null)
  store ptr %15, ptr %4, align 8, !tbaa !392
  call void @llvm.lifetime.start.p0(i64 4, ptr %5) #2
  store i32 2, ptr %5, align 4, !tbaa !33
  call void @llvm.lifetime.start.p0(i64 4, ptr %6) #2
  store i32 0, ptr %6, align 4, !tbaa !33
  br label %16

16:                                               ; preds = %73, %0
  %17 = load i32, ptr %6, align 4, !tbaa !33
  %18 = icmp slt i32 %17, 20
  br i1 %18, label %20, label %19

19:                                               ; preds = %16
  store i32 2, ptr %7, align 4
  call void @llvm.lifetime.end.p0(i64 4, ptr %6) #2
  br label %76

20:                                               ; preds = %16
  %21 = getelementptr inbounds [28 x i8], ptr %2, i64 0, i64 0
  %22 = load i32, ptr %6, align 4, !tbaa !33
  %23 = sdiv i32 %22, 2
  %24 = sext i32 %23 to i64
  %25 = getelementptr inbounds [10 x ptr], ptr @_ZZL26ExampleTree_CreateDemoTreevE10root_names, i64 0, i64 %24
  %26 = load ptr, ptr %25, align 8, !tbaa !106
  %27 = load i32, ptr %6, align 4, !tbaa !33
  %28 = srem i32 %27, 2
  %29 = call i32 (ptr, i64, ptr, ...) @snprintf(ptr noundef %21, i64 noundef 28, ptr noundef @.str.1161, ptr noundef %26, i32 noundef %28) #2
  call void @llvm.lifetime.start.p0(i64 8, ptr %8) #2
  %30 = getelementptr inbounds [28 x i8], ptr %2, i64 0, i64 0
  %31 = load i32, ptr %3, align 4, !tbaa !33
  %32 = add nsw i32 %31, 1
  store i32 %32, ptr %3, align 4, !tbaa !33
  %33 = load ptr, ptr %4, align 8, !tbaa !392
  %34 = call noundef ptr @_ZL22ExampleTree_CreateNodePKciP15ExampleTreeNode(ptr noundef %30, i32 noundef %32, ptr noundef %33)
  store ptr %34, ptr %8, align 8, !tbaa !392
  call void @llvm.lifetime.start.p0(i64 4, ptr %9) #2
  %35 = load ptr, ptr %8, align 8, !tbaa !392
  %36 = getelementptr inbounds nuw %struct.ExampleTreeNode, ptr %35, i32 0, i32 0
  %37 = getelementptr inbounds [28 x i8], ptr %36, i64 0, i64 0
  %38 = call i64 @strlen(ptr noundef %37) #19
  %39 = trunc i64 %38 to i32
  store i32 %39, ptr %9, align 4, !tbaa !33
  call void @llvm.lifetime.start.p0(i64 4, ptr %10) #2
  store i32 0, ptr %10, align 4, !tbaa !33
  br label %40

40:                                               ; preds = %69, %20
  %41 = load i32, ptr %10, align 4, !tbaa !33
  %42 = load i32, ptr %9, align 4, !tbaa !33
  %43 = icmp slt i32 %41, %42
  br i1 %43, label %45, label %44

44:                                               ; preds = %40
  store i32 5, ptr %7, align 4
  call void @llvm.lifetime.end.p0(i64 4, ptr %10) #2
  br label %72

45:                                               ; preds = %40
  %46 = getelementptr inbounds [28 x i8], ptr %2, i64 0, i64 0
  %47 = load i32, ptr %10, align 4, !tbaa !33
  %48 = call i32 (ptr, i64, ptr, ...) @snprintf(ptr noundef %46, i64 noundef 28, ptr noundef @.str.493, i32 noundef %47) #2
  call void @llvm.lifetime.start.p0(i64 8, ptr %11) #2
  %49 = getelementptr inbounds [28 x i8], ptr %2, i64 0, i64 0
  %50 = load i32, ptr %3, align 4, !tbaa !33
  %51 = add nsw i32 %50, 1
  store i32 %51, ptr %3, align 4, !tbaa !33
  %52 = load ptr, ptr %8, align 8, !tbaa !392
  %53 = call noundef ptr @_ZL22ExampleTree_CreateNodePKciP15ExampleTreeNode(ptr noundef %49, i32 noundef %51, ptr noundef %52)
  store ptr %53, ptr %11, align 8, !tbaa !392
  %54 = load ptr, ptr %11, align 8, !tbaa !392
  %55 = getelementptr inbounds nuw %struct.ExampleTreeNode, ptr %54, i32 0, i32 5
  store i8 1, ptr %55, align 2, !tbaa !486
  %56 = load i32, ptr %10, align 4, !tbaa !33
  %57 = icmp eq i32 %56, 0
  br i1 %57, label %58, label %68

58:                                               ; preds = %45
  %59 = getelementptr inbounds [28 x i8], ptr %2, i64 0, i64 0
  %60 = call i32 (ptr, i64, ptr, ...) @snprintf(ptr noundef %59, i64 noundef 28, ptr noundef @.str.1162, i32 noundef 0) #2
  call void @llvm.lifetime.start.p0(i64 8, ptr %12) #2
  %61 = getelementptr inbounds [28 x i8], ptr %2, i64 0, i64 0
  %62 = load i32, ptr %3, align 4, !tbaa !33
  %63 = add nsw i32 %62, 1
  store i32 %63, ptr %3, align 4, !tbaa !33
  %64 = load ptr, ptr %11, align 8, !tbaa !392
  %65 = call noundef ptr @_ZL22ExampleTree_CreateNodePKciP15ExampleTreeNode(ptr noundef %61, i32 noundef %63, ptr noundef %64)
  store ptr %65, ptr %12, align 8, !tbaa !392
  %66 = load ptr, ptr %12, align 8, !tbaa !392
  %67 = getelementptr inbounds nuw %struct.ExampleTreeNode, ptr %66, i32 0, i32 5
  store i8 1, ptr %67, align 2, !tbaa !486
  call void @llvm.lifetime.end.p0(i64 8, ptr %12) #2
  br label %68

68:                                               ; preds = %58, %45
  call void @llvm.lifetime.end.p0(i64 8, ptr %11) #2
  br label %69

69:                                               ; preds = %68
  %70 = load i32, ptr %10, align 4, !tbaa !33
  %71 = add nsw i32 %70, 1
  store i32 %71, ptr %10, align 4, !tbaa !33
  br label %40, !llvm.loop !488

72:                                               ; preds = %44
  call void @llvm.lifetime.end.p0(i64 4, ptr %9) #2
  call void @llvm.lifetime.end.p0(i64 8, ptr %8) #2
  br label %73

73:                                               ; preds = %72
  %74 = load i32, ptr %6, align 4, !tbaa !33
  %75 = add nsw i32 %74, 1
  store i32 %75, ptr %6, align 4, !tbaa !33
  br label %16, !llvm.loop !489

76:                                               ; preds = %19
  %77 = load ptr, ptr %4, align 8, !tbaa !392
  store i32 1, ptr %7, align 4
  call void @llvm.lifetime.end.p0(i64 4, ptr %5) #2
  call void @llvm.lifetime.end.p0(i64 8, ptr %4) #2
  call void @llvm.lifetime.end.p0(i64 4, ptr %3) #2
  call void @llvm.lifetime.end.p0(i64 28, ptr %2) #2
  call void @llvm.lifetime.end.p0(i64 8, ptr %1) #2
  ret ptr %77
}