; Function Attrs: mustprogress uwtable
define internal fastcc noundef ptr @_ZL26ExampleTree_CreateDemoTreev() unnamed_addr #4 personality ptr @__gxx_personality_v0 {
  %1 = alloca [28 x i8], align 16
  call void @llvm.lifetime.start.p0(i64 28, ptr nonnull %1) #33
  %2 = tail call noundef ptr @_ZN5ImGui8MemAllocEm(i64 noundef 72)
  %3 = getelementptr inbounds nuw i8, ptr %2, i64 59
  store i8 1, ptr %3, align 1, !tbaa !470
  %4 = getelementptr inbounds nuw i8, ptr %2, i64 60
  store i32 128, ptr %4, align 4, !tbaa !472
  %5 = getelementptr inbounds nuw i8, ptr %2, i64 64
  store float 0.000000e+00, ptr %5, align 4, !tbaa !42
  %6 = getelementptr inbounds nuw i8, ptr %2, i64 68
  store float 0x400921FB00000000, ptr %6, align 4, !tbaa !44
  %7 = getelementptr i8, ptr %2, i64 7
  tail call void @llvm.memset.p0.i64(ptr noundef nonnull align 1 dereferenceable(52) %7, i8 0, i64 52, i1 false)
  tail call void @llvm.memcpy.p0.p0.i64(ptr noundef nonnull align 1 dereferenceable(7) %2, ptr noundef nonnull align 1 dereferenceable(7) @.str.1160, i64 7, i1 false)
  %8 = getelementptr inbounds nuw i8, ptr %2, i64 28
  store i32 1, ptr %8, align 4, !tbaa !473
  %9 = getelementptr inbounds nuw i8, ptr %2, i64 56
  store i16 0, ptr %9, align 8, !tbaa !474
  br label %11

10:                                               ; preds = %._crit_edge
  call void @llvm.lifetime.end.p0(i64 28, ptr nonnull %1) #33
  ret ptr %2

11:                                               ; preds = %0, %._crit_edge
  %.035 = phi i32 [ 1, %0 ], [ %.1.lcssa, %._crit_edge ]
  %.01934 = phi i32 [ 0, %0 ], [ %25, %._crit_edge ]
  %12 = lshr i32 %.01934, 1
  %13 = zext nneg i32 %12 to i64
  %14 = getelementptr inbounds nuw [10 x ptr], ptr @_ZZL26ExampleTree_CreateDemoTreevE10root_names, i64 0, i64 %13
  %15 = load ptr, ptr %14, align 8, !tbaa !96
  %16 = and i32 %.01934, 1
  %17 = call i32 (ptr, i64, ptr, ...) @snprintf(ptr noundef nonnull dereferenceable(1) %1, i64 noundef 28, ptr noundef nonnull @.str.1161, ptr noundef %15, i32 noundef %16) #33
  %18 = add nsw i32 %.035, 1
  %19 = call fastcc noundef ptr @_ZL22ExampleTree_CreateNodePKciP15ExampleTreeNode(ptr noundef nonnull %1, i32 noundef %18, ptr noundef nonnull %2)
  %20 = call i64 @strlen(ptr noundef nonnull dereferenceable(1) %19) #35
  %21 = trunc i64 %20 to i32
  %22 = icmp sgt i32 %21, 0
  br i1 %22, label %.lr.ph, label %._crit_edge

.lr.ph:                                           ; preds = %11
  %23 = getelementptr inbounds nuw i8, ptr %19, i64 40
  %24 = getelementptr inbounds nuw i8, ptr %19, i64 44
  %.phi.trans.insert.i.i = getelementptr inbounds nuw i8, ptr %19, i64 48
  br label %26

._crit_edge:                                      ; preds = %112, %11
  %.1.lcssa = phi i32 [ %18, %11 ], [ %.2, %112 ]
  %25 = add nuw nsw i32 %.01934, 1
  %exitcond36.not = icmp eq i32 %25, 20
  br i1 %exitcond36.not, label %10, label %11, !llvm.loop !475

26:                                               ; preds = %.lr.ph, %112
  %.133 = phi i32 [ %18, %.lr.ph ], [ %.2, %112 ]
  %.02032 = phi i32 [ 0, %.lr.ph ], [ %113, %112 ]
  %27 = call i32 (ptr, i64, ptr, ...) @snprintf(ptr noundef nonnull dereferenceable(1) %1, i64 noundef 28, ptr noundef nonnull @.str.493, i32 noundef %.02032) #33
  %28 = add nsw i32 %.133, 1
  %29 = call noundef ptr @_ZN5ImGui8MemAllocEm(i64 noundef 72)
  %30 = getelementptr inbounds nuw i8, ptr %29, i64 59
  call void @llvm.memset.p0.i64(ptr noundef nonnull align 8 dereferenceable(72) %29, i8 0, i64 59, i1 false)
  store i8 1, ptr %30, align 1, !tbaa !470
  %31 = getelementptr inbounds nuw i8, ptr %29, i64 60
  store i32 128, ptr %31, align 4, !tbaa !472
  %32 = getelementptr inbounds nuw i8, ptr %29, i64 64
  store float 0.000000e+00, ptr %32, align 4, !tbaa !42
  %33 = getelementptr inbounds nuw i8, ptr %29, i64 68
  store float 0x400921FB00000000, ptr %33, align 4, !tbaa !44
  %34 = call i32 (ptr, i64, ptr, ...) @snprintf(ptr noundef nonnull dereferenceable(1) %29, i64 noundef 28, ptr noundef nonnull @.str.1039, ptr noundef nonnull %1) #33
  %35 = getelementptr inbounds nuw i8, ptr %29, i64 28
  store i32 %28, ptr %35, align 4, !tbaa !473
  %36 = getelementptr inbounds nuw i8, ptr %29, i64 32
  store ptr %19, ptr %36, align 8, !tbaa !476
  %37 = load i32, ptr %23, align 8, !tbaa !477
  %38 = trunc i32 %37 to i16
  %39 = getelementptr inbounds nuw i8, ptr %29, i64 56
  store i16 %38, ptr %39, align 8, !tbaa !474
  %40 = load i32, ptr %24, align 4, !tbaa !478
  %41 = icmp eq i32 %37, %40
  br i1 %41, label %42, label %._ZN8ImVectorIP15ExampleTreeNodeE7reserveEi.exit_crit_edge.i.i

._ZN8ImVectorIP15ExampleTreeNodeE7reserveEi.exit_crit_edge.i.i: ; preds = %26
  %.pre.i.i = load ptr, ptr %.phi.trans.insert.i.i, align 8, !tbaa !401
  br label %_ZL22ExampleTree_CreateNodePKciP15ExampleTreeNode.exit

42:                                               ; preds = %26
  %43 = add nsw i32 %37, 1
  %.not.i.i.i = icmp eq i32 %37, 0
  br i1 %.not.i.i.i, label %_ZNK8ImVectorIP15ExampleTreeNodeE14_grow_capacityEi.exit.i.i, label %44

44:                                               ; preds = %42
  %45 = sdiv i32 %37, 2
  %46 = add nsw i32 %45, %37
  br label %_ZNK8ImVectorIP15ExampleTreeNodeE14_grow_capacityEi.exit.i.i

_ZNK8ImVectorIP15ExampleTreeNodeE14_grow_capacityEi.exit.i.i: ; preds = %44, %42
  %47 = phi i32 [ %46, %44 ], [ 8, %42 ]
  %48 = call noundef i32 @llvm.smax.i32(i32 %47, i32 %43)
  %49 = sext i32 %48 to i64
  %50 = shl nsw i64 %49, 3
  %51 = call noundef ptr @_ZN5ImGui8MemAllocEm(i64 noundef %50)
  %52 = load ptr, ptr %.phi.trans.insert.i.i, align 8, !tbaa !401
  %.not6.i.i.i = icmp eq ptr %52, null
  br i1 %.not6.i.i.i, label %58, label %53

53:                                               ; preds = %_ZNK8ImVectorIP15ExampleTreeNodeE14_grow_capacityEi.exit.i.i
  %54 = load i32, ptr %23, align 8, !tbaa !404
  %55 = sext i32 %54 to i64
  %56 = shl nsw i64 %55, 3
  call void @llvm.memcpy.p0.p0.i64(ptr align 8 %51, ptr nonnull align 8 %52, i64 %56, i1 false)
  %57 = load ptr, ptr %.phi.trans.insert.i.i, align 8, !tbaa !401
  call void @_ZN5ImGui7MemFreeEPv(ptr noundef %57)
  br label %58

58:                                               ; preds = %53, %_ZNK8ImVectorIP15ExampleTreeNodeE14_grow_capacityEi.exit.i.i
  store ptr %51, ptr %.phi.trans.insert.i.i, align 8, !tbaa !401
  store i32 %48, ptr %24, align 4, !tbaa !478
  %.pre3.i.i = load i32, ptr %23, align 8, !tbaa !404
  br label %_ZL22ExampleTree_CreateNodePKciP15ExampleTreeNode.exit

_ZL22ExampleTree_CreateNodePKciP15ExampleTreeNode.exit: ; preds = %._ZN8ImVectorIP15ExampleTreeNodeE7reserveEi.exit_crit_edge.i.i, %58
  %59 = phi i32 [ %37, %._ZN8ImVectorIP15ExampleTreeNodeE7reserveEi.exit_crit_edge.i.i ], [ %.pre3.i.i, %58 ]
  %60 = phi ptr [ %.pre.i.i, %._ZN8ImVectorIP15ExampleTreeNodeE7reserveEi.exit_crit_edge.i.i ], [ %51, %58 ]
  %61 = sext i32 %59 to i64
  %62 = getelementptr inbounds ptr, ptr %60, i64 %61
  %63 = ptrtoint ptr %29 to i64
  store i64 %63, ptr %62, align 8
  %64 = load i32, ptr %23, align 8, !tbaa !404
  %65 = add nsw i32 %64, 1
  store i32 %65, ptr %23, align 8, !tbaa !404
  %66 = getelementptr inbounds nuw i8, ptr %29, i64 58
  store i8 1, ptr %66, align 2, !tbaa !479
  %67 = icmp eq i32 %.02032, 0
  br i1 %67, label %68, label %112

68:                                               ; preds = %_ZL22ExampleTree_CreateNodePKciP15ExampleTreeNode.exit
  %69 = call i32 (ptr, i64, ptr, ...) @snprintf(ptr noundef nonnull dereferenceable(1) %1, i64 noundef 28, ptr noundef nonnull @.str.1162, i32 noundef 0) #33
  %70 = add nsw i32 %.133, 2
  %71 = call noundef ptr @_ZN5ImGui8MemAllocEm(i64 noundef 72)
  %72 = getelementptr inbounds nuw i8, ptr %71, i64 59
  call void @llvm.memset.p0.i64(ptr noundef nonnull align 8 dereferenceable(72) %71, i8 0, i64 59, i1 false)
  store i8 1, ptr %72, align 1, !tbaa !470
  %73 = getelementptr inbounds nuw i8, ptr %71, i64 60
  store i32 128, ptr %73, align 4, !tbaa !472
  %74 = getelementptr inbounds nuw i8, ptr %71, i64 64
  store float 0.000000e+00, ptr %74, align 4, !tbaa !42
  %75 = getelementptr inbounds nuw i8, ptr %71, i64 68
  store float 0x400921FB00000000, ptr %75, align 4, !tbaa !44
  %76 = call i32 (ptr, i64, ptr, ...) @snprintf(ptr noundef nonnull dereferenceable(1) %71, i64 noundef 28, ptr noundef nonnull @.str.1039, ptr noundef nonnull %1) #33
  %77 = getelementptr inbounds nuw i8, ptr %71, i64 28
  store i32 %70, ptr %77, align 4, !tbaa !473
  %78 = getelementptr inbounds nuw i8, ptr %71, i64 32
  store ptr %29, ptr %78, align 8, !tbaa !476
  %79 = getelementptr inbounds nuw i8, ptr %29, i64 40
  %80 = load i32, ptr %79, align 8, !tbaa !477
  %81 = trunc i32 %80 to i16
  %82 = getelementptr inbounds nuw i8, ptr %71, i64 56
  store i16 %81, ptr %82, align 8, !tbaa !474
  %83 = getelementptr inbounds nuw i8, ptr %29, i64 44
  %84 = load i32, ptr %83, align 4, !tbaa !478
  %85 = icmp eq i32 %80, %84
  br i1 %85, label %86, label %._ZN8ImVectorIP15ExampleTreeNodeE7reserveEi.exit_crit_edge.i.i22

._ZN8ImVectorIP15ExampleTreeNodeE7reserveEi.exit_crit_edge.i.i22: ; preds = %68
  %.phi.trans.insert.i.i23 = getelementptr inbounds nuw i8, ptr %29, i64 48
  %.pre.i.i24 = load ptr, ptr %.phi.trans.insert.i.i23, align 8, !tbaa !401
  br label %_ZL22ExampleTree_CreateNodePKciP15ExampleTreeNode.exit31

86:                                               ; preds = %68
  %87 = add nsw i32 %80, 1
  %.not.i.i.i26 = icmp eq i32 %80, 0
  br i1 %.not.i.i.i26, label %_ZNK8ImVectorIP15ExampleTreeNodeE14_grow_capacityEi.exit.i.i27, label %88

88:                                               ; preds = %86
  %89 = sdiv i32 %80, 2
  %90 = add nsw i32 %89, %80
  br label %_ZNK8ImVectorIP15ExampleTreeNodeE14_grow_capacityEi.exit.i.i27

_ZNK8ImVectorIP15ExampleTreeNodeE14_grow_capacityEi.exit.i.i27: ; preds = %88, %86
  %91 = phi i32 [ %90, %88 ], [ 8, %86 ]
  %92 = call noundef i32 @llvm.smax.i32(i32 %91, i32 %87)
  %93 = sext i32 %92 to i64
  %94 = shl nsw i64 %93, 3
  %95 = call noundef ptr @_ZN5ImGui8MemAllocEm(i64 noundef %94)
  %96 = getelementptr inbounds nuw i8, ptr %29, i64 48
  %97 = load ptr, ptr %96, align 8, !tbaa !401
  %.not6.i.i.i28 = icmp eq ptr %97, null
  br i1 %.not6.i.i.i28, label %103, label %98

98:                                               ; preds = %_ZNK8ImVectorIP15ExampleTreeNodeE14_grow_capacityEi.exit.i.i27
  %99 = load i32, ptr %79, align 8, !tbaa !404
  %100 = sext i32 %99 to i64
  %101 = shl nsw i64 %100, 3
  call void @llvm.memcpy.p0.p0.i64(ptr align 8 %95, ptr nonnull align 8 %97, i64 %101, i1 false)
  %102 = load ptr, ptr %96, align 8, !tbaa !401
  call void @_ZN5ImGui7MemFreeEPv(ptr noundef %102)
  br label %103

103:                                              ; preds = %98, %_ZNK8ImVectorIP15ExampleTreeNodeE14_grow_capacityEi.exit.i.i27
  store ptr %95, ptr %96, align 8, !tbaa !401
  store i32 %92, ptr %83, align 4, !tbaa !478
  %.pre3.i.i29 = load i32, ptr %79, align 8, !tbaa !404
  br label %_ZL22ExampleTree_CreateNodePKciP15ExampleTreeNode.exit31

_ZL22ExampleTree_CreateNodePKciP15ExampleTreeNode.exit31: ; preds = %._ZN8ImVectorIP15ExampleTreeNodeE7reserveEi.exit_crit_edge.i.i22, %103
  %104 = phi i32 [ %80, %._ZN8ImVectorIP15ExampleTreeNodeE7reserveEi.exit_crit_edge.i.i22 ], [ %.pre3.i.i29, %103 ]
  %105 = phi ptr [ %.pre.i.i24, %._ZN8ImVectorIP15ExampleTreeNodeE7reserveEi.exit_crit_edge.i.i22 ], [ %95, %103 ]
  %106 = sext i32 %104 to i64
  %107 = getelementptr inbounds ptr, ptr %105, i64 %106
  %108 = ptrtoint ptr %71 to i64
  store i64 %108, ptr %107, align 8
  %109 = load i32, ptr %79, align 8, !tbaa !404
  %110 = add nsw i32 %109, 1
  store i32 %110, ptr %79, align 8, !tbaa !404
  %111 = getelementptr inbounds nuw i8, ptr %71, i64 58
  store i8 1, ptr %111, align 2, !tbaa !479
  br label %112

112:                                              ; preds = %_ZL22ExampleTree_CreateNodePKciP15ExampleTreeNode.exit31, %_ZL22ExampleTree_CreateNodePKciP15ExampleTreeNode.exit
  %.2 = phi i32 [ %70, %_ZL22ExampleTree_CreateNodePKciP15ExampleTreeNode.exit31 ], [ %28, %_ZL22ExampleTree_CreateNodePKciP15ExampleTreeNode.exit ]
  %113 = add nuw nsw i32 %.02032, 1
  %exitcond.not = icmp eq i32 %113, %21
  br i1 %exitcond.not, label %._crit_edge, label %26, !llvm.loop !480
}